target datalayout = "e-m:e-p270:32:32-p271:32:32-p272:64:64-i64:64-i128:128-f80:128-n8:16:32:64-S128"
target triple = "x86_64-pc-linux-gnu"

; Function Attrs: mustprogress nounwind uwtable
define available_externally noundef i64 @_ZNKSt7__cxx1112basic_stringIcSt11char_traitsIcESaIcEE13find_first_ofEcm(ptr noundef nonnull align 8 dereferenceable(32) %0, i8 noundef signext %1, i64 noundef %2) #1 align 2 {
  %4 = alloca ptr, align 8
  %5 = alloca i8, align 1
  %6 = alloca i64, align 8
  store ptr %0, ptr %4, align 8, !tbaa !4
  store i8 %1, ptr %5, align 1, !tbaa !17
  store i64 %2, ptr %6, align 8, !tbaa !13
  %7 = load ptr, ptr %4, align 8
  %8 = load i8, ptr %5, align 1, !tbaa !17
  %9 = load i64, ptr %6, align 8, !tbaa !13
  %10 = call noundef i64 @_ZNKSt7__cxx1112basic_stringIcSt11char_traitsIcESaIcEE4findEcm(ptr noundef nonnull align 8 dereferenceable(32) %7, i8 noundef signext %8, i64 noundef %9) #16
  ret i64 %10
}

; Function Attrs: mustprogress nounwind uwtable
define dso_local noundef i64 @_ZN4i18n12phonenumbers7FindNthERKNSt7__cxx1112basic_stringIcSt11char_traitsIcESaIcEEEci(ptr noundef nonnull align 8 dereferenceable(32) %0, i8 noundef signext %1, i32 noundef %2) #1 {
  %4 = alloca ptr, align 8
  %5 = alloca i8, align 1
  %6 = alloca i32, align 4
  %7 = alloca i64, align 8
  %8 = alloca i32, align 4
  %9 = alloca i32, align 4
  store ptr %0, ptr %4, align 8, !tbaa !4
  store i8 %1, ptr %5, align 1, !tbaa !17
  store i32 %2, ptr %6, align 4, !tbaa !9
  call void @llvm.lifetime.start.p0(i64 8, ptr %7) #16
  store i64 -1, ptr %7, align 8, !tbaa !13
  call void @llvm.lifetime.start.p0(i64 4, ptr %8) #16
  store i32 0, ptr %8, align 4, !tbaa !9
  br label %10

10:                                               ; preds = %25, %3
  %11 = load i32, ptr %8, align 4, !tbaa !9
  %12 = load i32, ptr %6, align 4, !tbaa !9
  %13 = icmp slt i32 %11, %12
  br i1 %13, label %15, label %14

14:                                               ; preds = %10
  store i32 2, ptr %9, align 4
  br label %28

15:                                               ; preds = %10
  %16 = load ptr, ptr %4, align 8, !tbaa !4
  %17 = load i8, ptr %5, align 1, !tbaa !17
  %18 = load i64, ptr %7, align 8, !tbaa !13
  %19 = add i64 %18, 1
  %20 = call noundef i64 @_ZNKSt7__cxx1112basic_stringIcSt11char_traitsIcESaIcEE13find_first_ofEcm(ptr noundef nonnull align 8 dereferenceable(32) %16, i8 noundef signext %17, i64 noundef %19) #16
  store i64 %20, ptr %7, align 8, !tbaa !13
  %21 = load i64, ptr %7, align 8, !tbaa !13
  %22 = icmp eq i64 %21, -1
  br i1 %22, label %23, label %24

23:                                               ; preds = %15
  store i32 2, ptr %9, align 4
  br label %28

24:                                               ; preds = %15
  br label %25

25:                                               ; preds = %24
  %26 = load i32, ptr %8, align 4, !tbaa !9
  %27 = add nsw i32 %26, 1
  store i32 %27, ptr %8, align 4, !tbaa !9
  br label %10, !llvm.loop !18

28:                                               ; preds = %23, %14
  call void @llvm.lifetime.end.p0(i64 4, ptr %8) #16
  br label %29

29:                                               ; preds = %28
  %30 = load i64, ptr %7, align 8, !tbaa !13
  store i32 1, ptr %9, align 4
  call void @llvm.lifetime.end.p0(i64 8, ptr %7) #16
  ret i64 %30
}